; Listing generated by Microsoft (R) Optimizing Compiler Version 19.28.29334.0 

	TITLE	D:\ako\przyklad\przyklad\Source.cpp
	.686P
	.XMM
	include listing.inc
	.model	flat

INCLUDELIB MSVCRTD
INCLUDELIB OLDNAMES

msvcjmc	SEGMENT
__C1B62BAB_Source@cpp DB 01H
msvcjmc	ENDS
PUBLIC	_main
PUBLIC	__JustMyCode_Default
EXTRN	@__CheckForDebuggerJustMyCode@4:PROC
EXTRN	__RTC_CheckEsp:PROC
EXTRN	__RTC_InitBase:PROC
EXTRN	__RTC_Shutdown:PROC
;	COMDAT rtc$TMZ
rtc$TMZ	SEGMENT
__RTC_Shutdown.rtc$TMZ DD FLAT:__RTC_Shutdown
rtc$TMZ	ENDS
;	COMDAT rtc$IMZ
rtc$IMZ	SEGMENT
__RTC_InitBase.rtc$IMZ DD FLAT:__RTC_InitBase
rtc$IMZ	ENDS
; Function compile flags: /Odt
;	COMDAT __JustMyCode_Default
_TEXT	SEGMENT
__JustMyCode_Default PROC				; COMDAT
  00000	55		 push	 ebp
  00001	8b ec		 mov	 ebp, esp
  00003	5d		 pop	 ebp
  00004	c3		 ret	 0
__JustMyCode_Default ENDP
_TEXT	ENDS
; Function compile flags: /Odtp /RTCsu /ZI
; File D:\ako\przyklad\przyklad\Source.cpp
;	COMDAT _main
_TEXT	SEGMENT
_q$ = -20						; size = 4
_p$ = -8						; size = 4
_main	PROC						; COMDAT

; 1    : int main() {

  00000	55		 push	 ebp
  00001	8b ec		 mov	 ebp, esp
  00003	81 ec d8 00 00
	00		 sub	 esp, 216		; 000000d8H
  00009	53		 push	 ebx
  0000a	56		 push	 esi
  0000b	57		 push	 edi
  0000c	8d bd 28 ff ff
	ff		 lea	 edi, DWORD PTR [ebp-216]
  00012	b9 36 00 00 00	 mov	 ecx, 54			; 00000036H
  00017	b8 cc cc cc cc	 mov	 eax, -858993460		; ccccccccH
  0001c	f3 ab		 rep stosd
  0001e	b9 00 00 00 00	 mov	 ecx, OFFSET __C1B62BAB_Source@cpp
  00023	e8 00 00 00 00	 call	 @__CheckForDebuggerJustMyCode@4

; 2    : 	int p, q;
; 3    : 	p = -4;

  00028	c7 45 f8 fc ff
	ff ff		 mov	 DWORD PTR _p$[ebp], -4	; fffffffcH

; 4    : 	q = p * p + 1;

  0002f	8b 45 f8	 mov	 eax, DWORD PTR _p$[ebp]
  00032	0f af 45 f8	 imul	 eax, DWORD PTR _p$[ebp]
  00036	83 c0 01	 add	 eax, 1
  00039	89 45 ec	 mov	 DWORD PTR _q$[ebp], eax

; 5    : 	return 0;

  0003c	33 c0		 xor	 eax, eax

; 6    : }

  0003e	5f		 pop	 edi
  0003f	5e		 pop	 esi
  00040	5b		 pop	 ebx
  00041	81 c4 d8 00 00
	00		 add	 esp, 216		; 000000d8H
  00047	3b ec		 cmp	 ebp, esp
  00049	e8 00 00 00 00	 call	 __RTC_CheckEsp
  0004e	8b e5		 mov	 esp, ebp
  00050	5d		 pop	 ebp
  00051	c3		 ret	 0
_main	ENDP
_TEXT	ENDS
END
